target datalayout = "e-m:e-p270:32:32-p271:32:32-p272:64:64-i64:64-i128:128-f80:128-n8:16:32:64-S128"
target triple = "x86_64-pc-linux-gnu"

%class.symbol = type { ptr }
%"class.array::solver" = type { %"class.euf::th_euf_solver.base", %class.array_util, %"struct.array::solver::stats", %class.scoped_ptr_vector, %class.ast2ast_trailmap, %class.ast2ast_trailmap.12, %class.obj_map.23, %class.union_find, %"struct.array::solver::axiom_record::hash", %"struct.array::solver::axiom_record::eq", %class.hashtable, %class.svector.30, i32, i32, i8, %class.scoped_ptr, %class.ptr_vector, %class.ptr_vector.32, %class.svector.34, %class.obj_map.36, %class.ptr_vector, %class.ptr_vector.41 }
%"class.euf::th_euf_solver.base" = type <{ %"class.euf::th_solver", ptr, %class.ptr_vector, %class.svector.1, i32 }>
%"class.euf::th_solver" = type { %"class.sat::extension", %"class.euf::th_model_builder", %"class.euf::th_decompile", %"class.euf::th_internalizer", ptr }
%"class.sat::extension" = type { ptr, i8, i32, %class.symbol, ptr }
%"class.euf::th_model_builder" = type { ptr }
%"class.euf::th_decompile" = type { ptr }
%"class.euf::th_internalizer" = type { ptr, %class.ptr_vector, %class.svector }
%class.svector = type { %class.vector.0 }
%class.vector.0 = type { ptr }
%class.svector.1 = type { %class.vector.2 }
%class.vector.2 = type { ptr }
%class.array_util = type { %class.array_recognizers, ptr }
%class.array_recognizers = type { i32 }
%"struct.array::solver::stats" = type { i32, i32, i32, i32, i32, i32, i32, i32, i32, i32, i32, i32, i32, i32 }
%class.scoped_ptr_vector = type { %class.ptr_vector.3 }
%class.ptr_vector.3 = type { %class.vector.4 }
%class.vector.4 = type { ptr }
%class.ast2ast_trailmap = type { %class.ref_vector, %class.ref_vector.7, %class.obj_map }
%class.ref_vector = type { %class.ref_vector_core }
%class.ref_vector_core = type { %class.ref_manager_wrapper, %class.ptr_vector.5 }
%class.ref_manager_wrapper = type { ptr }
%class.ptr_vector.5 = type { %class.vector.6 }
%class.vector.6 = type { ptr }
%class.ref_vector.7 = type { %class.ref_vector_core.8 }
%class.ref_vector_core.8 = type { %class.ref_manager_wrapper.9, %class.ptr_vector.10 }
%class.ref_manager_wrapper.9 = type { ptr }
%class.ptr_vector.10 = type { %class.vector.11 }
%class.vector.11 = type { ptr }
%class.obj_map = type { %class.core_hashtable }
%class.core_hashtable = type <{ ptr, i32, i32, i32, [4 x i8] }>
%class.ast2ast_trailmap.12 = type { %class.ref_vector, %class.ref_vector.13, %class.obj_map.18 }
%class.ref_vector.13 = type { %class.ref_vector_core.14 }
%class.ref_vector_core.14 = type { %class.ref_manager_wrapper.15, %class.ptr_vector.16 }
%class.ref_manager_wrapper.15 = type { ptr }
%class.ptr_vector.16 = type { %class.vector.17 }
%class.vector.17 = type { ptr }
%class.obj_map.18 = type { %class.core_hashtable.19 }
%class.core_hashtable.19 = type <{ ptr, i32, i32, i32, [4 x i8] }>
%class.obj_map.23 = type { %class.core_hashtable.24 }
%class.core_hashtable.24 = type <{ ptr, i32, i32, i32, [4 x i8] }>
%class.union_find = type { ptr, ptr, %class.svector.1, %class.svector.1, %class.svector.1, %"class.union_find<array::solver>::mk_var_trail" }
%"class.union_find<array::solver>::mk_var_trail" = type { %class.trail, ptr }
%class.trail = type { ptr }
%"struct.array::solver::axiom_record::hash" = type { ptr }
%"struct.array::solver::axiom_record::eq" = type { ptr }
%class.hashtable = type { %class.core_hashtable.base.29, [4 x i8] }
%class.core_hashtable.base.29 = type <{ %"struct.array::solver::axiom_record::hash", %"struct.array::solver::axiom_record::eq", ptr, i32, i32, i32 }>
%class.svector.30 = type { %class.vector.31 }
%class.vector.31 = type { ptr }
%class.scoped_ptr = type { ptr }
%class.ptr_vector.32 = type { %class.vector.33 }
%class.vector.33 = type { ptr }
%class.svector.34 = type { %class.vector.35 }
%class.vector.35 = type { ptr }
%class.obj_map.36 = type { %class.core_hashtable.37 }
%class.core_hashtable.37 = type <{ ptr, i32, i32, i32, [4 x i8] }>
%class.ptr_vector = type { %class.vector }
%class.vector = type { ptr }
%class.ptr_vector.41 = type { %class.vector.42 }
%class.vector.42 = type { ptr }
%"struct.array::solver::axiom_record" = type { i32, i32, ptr, ptr }
%"struct.array::solver::var_data" = type { i8, i8, %class.ptr_vector, %class.ptr_vector, %class.ptr_vector }

; Function Attrs: mustprogress nounwind uwtable
define linkonce_odr hidden noundef nonnull align 8 dereferenceable(8) ptr @_ZNK6vectorIPN5array6solver8var_dataELb0EjEixEj(ptr noundef nonnull align 8 dereferenceable(8) %0, i32 noundef %1) #6 comdat align 2 {
  %3 = alloca ptr, align 8
  %4 = alloca i32, align 4
  store ptr %0, ptr %3, align 8, !tbaa !366
  store i32 %1, ptr %4, align 4, !tbaa !10
  %5 = load ptr, ptr %3, align 8
  %6 = getelementptr inbounds nuw %class.vector.4, ptr %5, i32 0, i32 0
  %7 = load ptr, ptr %6, align 8, !tbaa !368
  %8 = load i32, ptr %4, align 4, !tbaa !10
  %9 = zext i32 %8 to i64
  %10 = getelementptr inbounds nuw ptr, ptr %7, i64 %9
  ret ptr %10
}

; Function Attrs: mustprogress nounwind uwtable
define linkonce_odr hidden noundef nonnull align 4 dereferenceable(4) ptr @_ZNK6vectorIjLb0EjEixEj(ptr noundef nonnull align 8 dereferenceable(8) %0, i32 noundef %1) #6 comdat align 2 {
  %3 = alloca ptr, align 8
  %4 = alloca i32, align 4
  store ptr %0, ptr %3, align 8, !tbaa !385
  store i32 %1, ptr %4, align 4, !tbaa !10
  %5 = load ptr, ptr %3, align 8
  %6 = getelementptr inbounds nuw %class.vector.2, ptr %5, i32 0, i32 0
  %7 = load ptr, ptr %6, align 8, !tbaa !387
  %8 = load i32, ptr %4, align 4, !tbaa !10
  %9 = zext i32 %8 to i64
  %10 = getelementptr inbounds nuw i32, ptr %7, i64 %9
  ret ptr %10
}

; Function Attrs: mustprogress nounwind uwtable
define linkonce_odr hidden void @_ZN5array6solver12axiom_recordC2ENS1_6kind_tEPN3euf5enodeES5_(ptr noundef nonnull align 8 dereferenceable(24) %0, i32 noundef %1, ptr noundef %2, ptr noundef %3) unnamed_addr #6 comdat align 2 {
  %5 = alloca ptr, align 8
  %6 = alloca i32, align 4
  %7 = alloca ptr, align 8
  %8 = alloca ptr, align 8
  store ptr %0, ptr %5, align 8, !tbaa !463
  store i32 %1, ptr %6, align 4, !tbaa !464
  store ptr %2, ptr %7, align 8, !tbaa !175
  store ptr %3, ptr %8, align 8, !tbaa !175
  %9 = load ptr, ptr %5, align 8
  %10 = getelementptr inbounds nuw %"struct.array::solver::axiom_record", ptr %9, i32 0, i32 0
  %11 = load i32, ptr %6, align 4, !tbaa !464
  store i32 %11, ptr %10, align 8, !tbaa !466
  %12 = getelementptr inbounds nuw %"struct.array::solver::axiom_record", ptr %9, i32 0, i32 1
  store i32 0, ptr %12, align 4, !tbaa !469
  %13 = getelementptr inbounds nuw %"struct.array::solver::axiom_record", ptr %9, i32 0, i32 2
  %14 = load ptr, ptr %7, align 8, !tbaa !175
  store ptr %14, ptr %13, align 8, !tbaa !470
  %15 = getelementptr inbounds nuw %"struct.array::solver::axiom_record", ptr %9, i32 0, i32 3
  %16 = load ptr, ptr %8, align 8, !tbaa !175
  store ptr %16, ptr %15, align 8, !tbaa !471
  ret void
}

; Function Attrs: mustprogress nounwind uwtable
define linkonce_odr hidden noundef i32 @_ZNK6vectorIPN3euf5enodeELb0EjE4sizeEv(ptr noundef nonnull align 8 dereferenceable(8) %0) #6 comdat align 2 {
  %2 = alloca i32, align 4
  %3 = alloca ptr, align 8
  store ptr %0, ptr %3, align 8, !tbaa !144
  %4 = load ptr, ptr %3, align 8
  %5 = getelementptr inbounds nuw %class.vector, ptr %4, i32 0, i32 0
  %6 = load ptr, ptr %5, align 8, !tbaa !347
  %7 = icmp eq ptr %6, null
  br i1 %7, label %8, label %9

8:                                                ; preds = %1
  store i32 0, ptr %2, align 4
  br label %14

9:                                                ; preds = %1
  %10 = getelementptr inbounds nuw %class.vector, ptr %4, i32 0, i32 0
  %11 = load ptr, ptr %10, align 8, !tbaa !347
  %12 = getelementptr inbounds i32, ptr %11, i64 -1
  %13 = load i32, ptr %12, align 4, !tbaa !10
  store i32 %13, ptr %2, align 4
  br label %14

14:                                               ; preds = %9, %8
  %15 = load i32, ptr %2, align 4
  ret i32 %15
}

; Function Attrs: mustprogress uwtable
define linkonce_odr hidden noundef ptr @_ZNK17scoped_ptr_vectorIN5array6solver8var_dataEEixEj(ptr noundef nonnull align 8 dereferenceable(8) %0, i32 noundef %1) #4 comdat align 2 {
  %3 = alloca ptr, align 8
  %4 = alloca i32, align 4
  store ptr %0, ptr %3, align 8, !tbaa !104
  store i32 %1, ptr %4, align 4, !tbaa !10
  %5 = load ptr, ptr %3, align 8
  %6 = getelementptr inbounds nuw %class.scoped_ptr_vector, ptr %5, i32 0, i32 0
  %7 = load i32, ptr %4, align 4, !tbaa !10
  %8 = call noundef nonnull align 8 dereferenceable(8) ptr @_ZNK6vectorIPN5array6solver8var_dataELb0EjEixEj(ptr noundef nonnull align 8 dereferenceable(8) %6, i32 noundef %7)
  %9 = load ptr, ptr %8, align 8, !tbaa !168
  ret ptr %9
}

; Function Attrs: mustprogress uwtable
define linkonce_odr hidden noundef i32 @_ZNK10union_findIN5array6solverEE4findEj(ptr noundef nonnull align 8 dereferenceable(56) %0, i32 noundef %1) #4 comdat align 2 {
  %3 = alloca i32, align 4
  %4 = alloca ptr, align 8
  %5 = alloca i32, align 4
  %6 = alloca i32, align 4
  %7 = alloca i32, align 4
  store ptr %0, ptr %4, align 8, !tbaa !113
  store i32 %1, ptr %5, align 4, !tbaa !10
  %8 = load ptr, ptr %4, align 8
  br label %9

9:                                                ; preds = %2, %23
  call void @llvm.lifetime.start.p0(i64 4, ptr %6) #3
  %10 = getelementptr inbounds nuw %class.union_find, ptr %8, i32 0, i32 2
  %11 = load i32, ptr %5, align 4, !tbaa !10
  %12 = call noundef nonnull align 4 dereferenceable(4) ptr @_ZNK6vectorIjLb0EjEixEj(ptr noundef nonnull align 8 dereferenceable(8) %10, i32 noundef %11)
  %13 = load i32, ptr %12, align 4, !tbaa !10
  store i32 %13, ptr %6, align 4, !tbaa !10
  %14 = load i32, ptr %6, align 4, !tbaa !10
  %15 = load i32, ptr %5, align 4, !tbaa !10
  %16 = icmp eq i32 %14, %15
  br i1 %16, label %17, label %19

17:                                               ; preds = %9
  %18 = load i32, ptr %5, align 4, !tbaa !10
  store i32 %18, ptr %3, align 4
  store i32 1, ptr %7, align 4
  br label %21

19:                                               ; preds = %9
  %20 = load i32, ptr %6, align 4, !tbaa !10
  store i32 %20, ptr %5, align 4, !tbaa !10
  store i32 0, ptr %7, align 4
  br label %21

21:                                               ; preds = %19, %17
  call void @llvm.lifetime.end.p0(i64 4, ptr %6) #3
  %22 = load i32, ptr %7, align 4
  switch i32 %22, label %26 [
    i32 0, label %23
    i32 1, label %24
  ]

23:                                               ; preds = %21
  br label %9, !llvm.loop !478

24:                                               ; preds = %21
  %25 = load i32, ptr %3, align 4
  ret i32 %25

26:                                               ; preds = %21
  unreachable
}

; Function Attrs: mustprogress uwtable
define linkonce_odr hidden void @_ZN5array6solver13default_axiomEPN3euf5enodeE(ptr dead_on_unwind noalias writable sret(%"struct.array::solver::axiom_record") align 8 %0, ptr noundef nonnull align 8 dereferenceable(536) %1, ptr noundef %2) #4 comdat align 2 {
  %4 = alloca ptr, align 8
  %5 = alloca ptr, align 8
  store ptr %1, ptr %4, align 8, !tbaa !3
  store ptr %2, ptr %5, align 8, !tbaa !175
  %6 = load ptr, ptr %5, align 8, !tbaa !175
  call void @_ZN5array6solver12axiom_recordC2ENS1_6kind_tEPN3euf5enodeES5_(ptr noundef nonnull align 8 dereferenceable(24) %0, i32 noundef 3, ptr noundef %6, ptr noundef null)
  ret void
}

; Function Attrs: mustprogress nounwind uwtable
define linkonce_odr hidden noundef ptr @_ZN6vectorIPN3euf5enodeELb0EjE3endEv(ptr noundef nonnull align 8 dereferenceable(8) %0) #6 comdat align 2 {
  %2 = alloca ptr, align 8
  store ptr %0, ptr %2, align 8, !tbaa !144
  %3 = load ptr, ptr %2, align 8
  %4 = getelementptr inbounds nuw %class.vector, ptr %3, i32 0, i32 0
  %5 = load ptr, ptr %4, align 8, !tbaa !347
  %6 = call noundef i32 @_ZNK6vectorIPN3euf5enodeELb0EjE4sizeEv(ptr noundef nonnull align 8 dereferenceable(8) %3)
  %7 = zext i32 %6 to i64
  %8 = getelementptr inbounds nuw ptr, ptr %5, i64 %7
  ret ptr %8
}

; Function Attrs: mustprogress nounwind uwtable
define linkonce_odr hidden noundef ptr @_ZN6vectorIPN3euf5enodeELb0EjE5beginEv(ptr noundef nonnull align 8 dereferenceable(8) %0) #6 comdat align 2 {
  %2 = alloca ptr, align 8
  store ptr %0, ptr %2, align 8, !tbaa !144
  %3 = load ptr, ptr %2, align 8
  %4 = getelementptr inbounds nuw %class.vector, ptr %3, i32 0, i32 0
  %5 = load ptr, ptr %4, align 8, !tbaa !347
  ret ptr %5
}

; Function Attrs: mustprogress uwtable
define linkonce_odr hidden noundef nonnull align 8 dereferenceable(32) ptr @_ZN5array6solver12get_var_dataEi(ptr noundef nonnull align 8 dereferenceable(536) %0, i32 noundef %1) #4 comdat align 2 {
  %3 = alloca ptr, align 8
  %4 = alloca i32, align 4
  store ptr %0, ptr %3, align 8, !tbaa !3
  store i32 %1, ptr %4, align 4, !tbaa !10
  %5 = load ptr, ptr %3, align 8
  %6 = getelementptr inbounds nuw %"class.array::solver", ptr %5, i32 0, i32 3
  %7 = load i32, ptr %4, align 4, !tbaa !10
  %8 = call noundef ptr @_ZNK17scoped_ptr_vectorIN5array6solver8var_dataEEixEj(ptr noundef nonnull align 8 dereferenceable(8) %6, i32 noundef %7)
  ret ptr %8
}

; Function Attrs: mustprogress uwtable
define linkonce_odr hidden noundef i32 @_ZN5array6solver4findEi(ptr noundef nonnull align 8 dereferenceable(536) %0, i32 noundef %1) #4 comdat align 2 {
  %3 = alloca ptr, align 8
  %4 = alloca i32, align 4
  store ptr %0, ptr %3, align 8, !tbaa !3
  store i32 %1, ptr %4, align 4, !tbaa !10
  %5 = load ptr, ptr %3, align 8
  %6 = getelementptr inbounds nuw %"class.array::solver", ptr %5, i32 0, i32 7
  %7 = load i32, ptr %4, align 4, !tbaa !10
  %8 = call noundef i32 @_ZNK10union_findIN5array6solverEE4findEj(ptr noundef nonnull align 8 dereferenceable(56) %6, i32 noundef %7)
  ret i32 %8
}

; Function Attrs: mustprogress uwtable
define hidden void @_ZN5array6solver24propagate_parent_defaultEi(ptr noundef nonnull align 8 dereferenceable(536) %0, i32 noundef %1) #4 align 2 {
  %3 = alloca ptr, align 8
  %4 = alloca i32, align 4
  %5 = alloca ptr, align 8
  %6 = alloca ptr, align 8
  %7 = alloca ptr, align 8
  %8 = alloca ptr, align 8
  %9 = alloca ptr, align 8
  %10 = alloca %"struct.array::solver::axiom_record", align 8
  store ptr %0, ptr %3, align 8, !tbaa !3
  store i32 %1, ptr %4, align 4, !tbaa !10
  %11 = load ptr, ptr %3, align 8
  call void @llvm.lifetime.start.p0(i64 8, ptr %5) #3
  %12 = load i32, ptr %4, align 4, !tbaa !10
  %13 = call noundef i32 @_ZN5array6solver4findEi(ptr noundef nonnull align 8 dereferenceable(536) %11, i32 noundef %12)
  %14 = call noundef nonnull align 8 dereferenceable(32) ptr @_ZN5array6solver12get_var_dataEi(ptr noundef nonnull align 8 dereferenceable(536) %11, i32 noundef %13)
  store ptr %14, ptr %5, align 8, !tbaa !168
  call void @llvm.lifetime.start.p0(i64 8, ptr %6) #3
  %15 = load ptr, ptr %5, align 8, !tbaa !168
  %16 = getelementptr inbounds nuw %"struct.array::solver::var_data", ptr %15, i32 0, i32 3
  store ptr %16, ptr %6, align 8, !tbaa !127
  call void @llvm.lifetime.start.p0(i64 8, ptr %7) #3
  %17 = load ptr, ptr %6, align 8, !tbaa !127
  %18 = call noundef ptr @_ZN6vectorIPN3euf5enodeELb0EjE5beginEv(ptr noundef nonnull align 8 dereferenceable(8) %17)
  store ptr %18, ptr %7, align 8, !tbaa !337
  call void @llvm.lifetime.start.p0(i64 8, ptr %8) #3
  %19 = load ptr, ptr %6, align 8, !tbaa !127
  %20 = call noundef ptr @_ZN6vectorIPN3euf5enodeELb0EjE3endEv(ptr noundef nonnull align 8 dereferenceable(8) %19)
  store ptr %20, ptr %8, align 8, !tbaa !337
  br label %21

21:                                               ; preds = %30, %2
  %22 = load ptr, ptr %7, align 8, !tbaa !337
  %23 = load ptr, ptr %8, align 8, !tbaa !337
  %24 = icmp ne ptr %22, %23
  br i1 %24, label %26, label %25

25:                                               ; preds = %21
  call void @llvm.lifetime.end.p0(i64 8, ptr %8) #3
  call void @llvm.lifetime.end.p0(i64 8, ptr %7) #3
  call void @llvm.lifetime.end.p0(i64 8, ptr %6) #3
  br label %33

26:                                               ; preds = %21
  call void @llvm.lifetime.start.p0(i64 8, ptr %9) #3
  %27 = load ptr, ptr %7, align 8, !tbaa !337
  %28 = load ptr, ptr %27, align 8, !tbaa !175
  store ptr %28, ptr %9, align 8, !tbaa !175
  call void @llvm.lifetime.start.p0(i64 24, ptr %10) #3
  %29 = load ptr, ptr %9, align 8, !tbaa !175
  call void @_ZN5array6solver13default_axiomEPN3euf5enodeE(ptr dead_on_unwind writable sret(%"struct.array::solver::axiom_record") align 8 %10, ptr noundef nonnull align 8 dereferenceable(536) %11, ptr noundef %29)
  call void @_ZN5array6solver10push_axiomERKNS0_12axiom_recordE(ptr noundef nonnull align 8 dereferenceable(536) %11, ptr noundef nonnull align 8 dereferenceable(24) %10)
  call void @llvm.lifetime.end.p0(i64 24, ptr %10) #3
  call void @llvm.lifetime.end.p0(i64 8, ptr %9) #3
  br label %30

30:                                               ; preds = %26
  %31 = load ptr, ptr %7, align 8, !tbaa !337
  %32 = getelementptr inbounds nuw ptr, ptr %31, i32 1
  store ptr %32, ptr %7, align 8, !tbaa !337
  br label %21

33:                                               ; preds = %25
  call void @llvm.lifetime.end.p0(i64 8, ptr %5) #3
  ret void
}