; Function Attrs: mustprogress uwtable
define hidden void @_ZN5array6solver24propagate_parent_defaultEi(ptr noundef nonnull align 8 dereferenceable(536) %0, i32 noundef %1) local_unnamed_addr #3 align 2 {
  %3 = alloca %"struct.array::solver::axiom_record", align 8
  %4 = getelementptr inbounds nuw i8, ptr %0, i64 344
  %5 = load ptr, ptr %4, align 8, !tbaa !139
  br label %6

6:                                                ; preds = %6, %2
  %.08.i.i = phi i32 [ %1, %2 ], [ %9, %6 ]
  %7 = zext i32 %.08.i.i to i64
  %8 = getelementptr inbounds nuw i32, ptr %5, i64 %7
  %9 = load i32, ptr %8, align 4, !tbaa !140
  %.not.i.i = icmp eq i32 %9, %.08.i.i
  br i1 %.not.i.i, label %_ZN5array6solver4findEi.exit, label %6

_ZN5array6solver4findEi.exit:                     ; preds = %6
  %10 = getelementptr inbounds nuw i8, ptr %0, i64 184
  %11 = load ptr, ptr %10, align 8, !tbaa !155
  %12 = getelementptr inbounds nuw ptr, ptr %11, i64 %7
  %13 = load ptr, ptr %12, align 8, !tbaa !156
  %14 = getelementptr inbounds nuw i8, ptr %13, i64 16
  %15 = load ptr, ptr %14, align 8, !tbaa !135
  %16 = icmp eq ptr %15, null
  br i1 %16, label %._crit_edge, label %_ZN6vectorIPN3euf5enodeELb0EjE3endEv.exit

_ZN6vectorIPN3euf5enodeELb0EjE3endEv.exit:        ; preds = %_ZN5array6solver4findEi.exit
  %17 = getelementptr inbounds i8, ptr %15, i64 -4
  %18 = load i32, ptr %17, align 4, !tbaa !140
  %19 = zext i32 %18 to i64
  %20 = getelementptr inbounds nuw ptr, ptr %15, i64 %19
  %.not9 = icmp eq i32 %18, 0
  br i1 %.not9, label %._crit_edge, label %.lr.ph

.lr.ph:                                           ; preds = %_ZN6vectorIPN3euf5enodeELb0EjE3endEv.exit
  %21 = getelementptr inbounds nuw i8, ptr %3, i64 4
  %22 = getelementptr inbounds nuw i8, ptr %3, i64 8
  %23 = getelementptr inbounds nuw i8, ptr %3, i64 16
  br label %24

._crit_edge:                                      ; preds = %24, %_ZN5array6solver4findEi.exit, %_ZN6vectorIPN3euf5enodeELb0EjE3endEv.exit
  ret void

24:                                               ; preds = %.lr.ph, %24
  %.010 = phi ptr [ %15, %.lr.ph ], [ %26, %24 ]
  %25 = load ptr, ptr %.010, align 8, !tbaa !174
  call void @llvm.lifetime.start.p0(i64 24, ptr nonnull %3) #20
  store i32 3, ptr %3, align 8, !tbaa !207, !alias.scope !409
  store i32 0, ptr %21, align 4, !tbaa !214, !alias.scope !409
  store ptr %25, ptr %22, align 8, !tbaa !215, !alias.scope !409
  store ptr null, ptr %23, align 8, !tbaa !216, !alias.scope !409
  call void @_ZN5array6solver10push_axiomERKNS0_12axiom_recordE(ptr noundef nonnull align 8 dereferenceable(536) %0, ptr noundef nonnull align 8 dereferenceable(24) %3)
  call void @llvm.lifetime.end.p0(i64 24, ptr nonnull %3) #20
  %26 = getelementptr inbounds nuw i8, ptr %.010, i64 8
  %.not = icmp eq ptr %26, %20
  br i1 %.not, label %._crit_edge, label %24
}